target datalayout = "e-m:e-p270:32:32-p271:32:32-p272:64:64-i64:64-i128:128-f80:128-n8:16:32:64-S128"
target triple = "x86_64-pc-linux-gnu"

%struct.stat = type { i64, i64, i64, i32, i32, i32, i32, i64, i64, i64, i64, %struct.timespec, %struct.timespec, %struct.timespec, [3 x i64] }
%struct.timespec = type { i64, i64 }
%struct.cli_ctx_tag = type { ptr, ptr, ptr, ptr, ptr, ptr, ptr, i64, ptr, i32, i32, ptr, i32, i32, ptr, [16 x i8], ptr, ptr, ptr, ptr, ptr, ptr, %struct.timeval, i8, i8 }
%struct.timeval = type { i64, i64 }
%struct.cl_fmap = type { ptr, ptr, ptr, i64, i64, i64, i64, i8, i8, i8, i64, i64, i64, i64, ptr, ptr, ptr, ptr, ptr, ptr, ptr, i8, [16 x i8], i8, [20 x i8], i8, [32 x i8], ptr, ptr }
%struct.cl_scan_options = type { i32, i32, i32, i32, i32 }
%struct.cl_engine = type { i32, i32, i32, [2 x i32], i32, i32, i32, ptr, i32, i64, i32, i32, i64, i64, i32, i32, i32, i32, ptr, ptr, ptr, ptr, ptr, ptr, ptr, ptr, ptr, ptr, ptr, ptr, ptr, ptr, ptr, ptr, ptr, ptr, ptr, i64, ptr, %struct.crtmgr, ptr, ptr, ptr, ptr, ptr, ptr, ptr, ptr, ptr, ptr, ptr, ptr, ptr, ptr, ptr, ptr, ptr, %struct.cli_all_bc, [7 x ptr], [7 x i32], i32, i32, i32, i32, i64, i64, i64, i64, i64, ptr, ptr, ptr, ptr, ptr, ptr, ptr, ptr, ptr, i32, i32, i32, i64, i64, i64, ptr }
%struct.crtmgr = type { ptr, i32 }
%struct.cli_all_bc = type { ptr, i32, ptr, %struct.cli_environment, i32 }
%struct.cli_environment = type { i32, i32, i32, i32, i32, i32, i32, [65 x i8], [65 x i8], [65 x i8], [65 x i8], [65 x i8], [65 x i8], [65 x i8], i8, i8, i8, i8, i8, i8, i8, i8, i8 }
%struct.recursion_level_tag = type { i32, i64, ptr, i32, i32, i32, %struct.image_fuzzy_hash, i8 }
%struct.image_fuzzy_hash = type { [8 x i8] }
%struct.cli_lsig_tdb = type { ptr, ptr, ptr, [3 x i32], i32, ptr, ptr, ptr, ptr, ptr, ptr, ptr, ptr, ptr, ptr, ptr, ptr }
%struct.cli_ac_result = type { ptr, ptr, i64, ptr }

@.str.113 = private unnamed_addr constant [5 x i8] c"test\00", align 1
@.str.115 = private unnamed_addr constant [2 x i8] c"*\00", align 1
@.str.434 = private unnamed_addr constant [12 x i8] c"SUBSIG: %s\0A\00", align 1
@.str.435 = private unnamed_addr constant [35 x i8] c"matchsig: Can't create new engine\0A\00", align 1
@.str.436 = private unnamed_addr constant [34 x i8] c"matchsig: cli_initroots() failed\0A\00", align 1
@.str.437 = private unnamed_addr constant [33 x i8] c"matchsig: Can't parse signature\0A\00", align 1
@.str.438 = private unnamed_addr constant [32 x i8] c"matchsig: Can't compile engine\0A\00", align 1
@.str.439 = private unnamed_addr constant [27 x i8] c"MATCH: ** YES%s ** (%u %s:\00", align 1
@.str.440 = private unnamed_addr constant [14 x i8] c"/CHECK OFFSET\00", align 1
@.str.441 = private unnamed_addr constant [1 x i8] zeroinitializer, align 1
@.str.442 = private unnamed_addr constant [19 x i8] c"matches at offsets\00", align 1
@.str.443 = private unnamed_addr constant [16 x i8] c"match at offset\00", align 1
@.str.444 = private unnamed_addr constant [4 x i8] c" %u\00", align 1
@.str.445 = private unnamed_addr constant [3 x i8] c")\0A\00", align 1
@.str.446 = private unnamed_addr constant [17 x i8] c"MATCH: ** NO **\0A\00", align 1

; Function Attrs: nounwind uwtable
define internal void @funmap(ptr noundef %0) #0 {
  %2 = alloca ptr, align 8
  store ptr %0, ptr %2, align 8
  %3 = load ptr, ptr %2, align 8
  %4 = getelementptr inbounds %struct.cl_fmap, ptr %3, i32 0, i32 14
  %5 = load ptr, ptr %4, align 8
  %6 = load ptr, ptr %2, align 8
  call void %5(ptr noundef %6)
  ret void
}

; Function Attrs: nounwind uwtable
define internal void @matchsig(ptr noundef %0, ptr noundef %1, i32 noundef %2) #0 {
  %4 = alloca ptr, align 8
  %5 = alloca ptr, align 8
  %6 = alloca i32, align 4
  %7 = alloca ptr, align 8
  %8 = alloca ptr, align 8
  %9 = alloca %struct.stat, align 8
  %10 = alloca i32, align 4
  %11 = alloca ptr, align 8
  %12 = alloca %struct.cli_ctx_tag, align 8
  %13 = alloca %struct.cl_scan_options, align 4
  %14 = alloca ptr, align 8
  %15 = alloca %struct.cli_lsig_tdb, align 8
  store ptr %0, ptr %4, align 8
  store ptr %1, ptr %5, align 8
  store i32 %2, ptr %6, align 4
  store ptr null, ptr %7, align 8
  store i32 0, ptr %10, align 4
  store ptr null, ptr %11, align 8
  call void @llvm.memset.p0.i64(ptr align 8 %12, i8 0, i64 192, i1 false)
  call void @llvm.memset.p0.i64(ptr align 4 %13, i8 0, i64 20, i1 false)
  store ptr null, ptr %14, align 8
  call void @llvm.memset.p0.i64(ptr align 8 %15, i8 0, i64 136, i1 false)
  %16 = load ptr, ptr %4, align 8
  call void (i32, ptr, ...) @mprintf(i32 noundef 0, ptr noundef @.str.434, ptr noundef %16)
  %17 = load i32, ptr %6, align 4
  %18 = call i64 @lseek(i32 noundef %17, i64 noundef 0, i32 noundef 0) #11
  %19 = load i32, ptr %6, align 4
  %20 = call i32 @fstat(i32 noundef %19, ptr noundef %9) #11
  %21 = load i32, ptr %6, align 4
  %22 = getelementptr inbounds %struct.stat, ptr %9, i32 0, i32 8
  %23 = load i64, ptr %22, align 8
  %24 = call ptr @fmap(i32 noundef %21, i64 noundef 0, i64 noundef %23, ptr noundef null)
  store ptr %24, ptr %14, align 8
  %25 = load ptr, ptr %14, align 8
  %26 = icmp eq ptr null, %25
  br i1 %26, label %27, label %28

27:                                               ; preds = %3
  br label %153

28:                                               ; preds = %3
  %29 = call ptr @cl_engine_new()
  store ptr %29, ptr %11, align 8
  %30 = icmp ne ptr %29, null
  br i1 %30, label %32, label %31

31:                                               ; preds = %28
  call void (i32, ptr, ...) @mprintf(i32 noundef 5, ptr noundef @.str.435)
  br label %153

32:                                               ; preds = %28
  %33 = load ptr, ptr %11, align 8
  %34 = call i32 @cl_engine_set_num(ptr noundef %33, i32 noundef 10, i64 noundef 1)
  %35 = load ptr, ptr %11, align 8
  %36 = call i32 @cli_initroots(ptr noundef %35, i32 noundef 0)
  %37 = icmp ne i32 %36, 0
  br i1 %37, label %38, label %39

38:                                               ; preds = %32
  call void (i32, ptr, ...) @mprintf(i32 noundef 5, ptr noundef @.str.436)
  br label %153

39:                                               ; preds = %32
  %40 = load ptr, ptr %11, align 8
  %41 = getelementptr inbounds %struct.cl_engine, ptr %40, i32 0, i32 18
  %42 = load ptr, ptr %41, align 8
  %43 = getelementptr inbounds ptr, ptr %42, i64 0
  %44 = load ptr, ptr %43, align 8
  %45 = load ptr, ptr %4, align 8
  %46 = call i32 @readdb_parse_ldb_subsignature(ptr noundef %44, ptr noundef @.str.113, ptr noundef %45, ptr noundef @.str.115, ptr noundef null, i32 noundef 0, i32 noundef 0, i32 noundef 1, ptr noundef %15)
  %47 = icmp ne i32 %46, 0
  br i1 %47, label %48, label %49

48:                                               ; preds = %39
  call void (i32, ptr, ...) @mprintf(i32 noundef 5, ptr noundef @.str.437)
  br label %153

49:                                               ; preds = %39
  %50 = load ptr, ptr %11, align 8
  %51 = call i32 @cl_engine_compile(ptr noundef %50)
  %52 = icmp ne i32 %51, 0
  br i1 %52, label %53, label %54

53:                                               ; preds = %49
  call void (i32, ptr, ...) @mprintf(i32 noundef 5, ptr noundef @.str.438)
  br label %153

54:                                               ; preds = %49
  %55 = load ptr, ptr %11, align 8
  %56 = getelementptr inbounds %struct.cli_ctx_tag, ptr %12, i32 0, i32 6
  store ptr %55, ptr %56, align 8
  %57 = call ptr @evidence_new()
  %58 = getelementptr inbounds %struct.cli_ctx_tag, ptr %12, i32 0, i32 3
  store ptr %57, ptr %58, align 8
  %59 = getelementptr inbounds %struct.cli_ctx_tag, ptr %12, i32 0, i32 8
  store ptr %13, ptr %59, align 8
  %60 = getelementptr inbounds %struct.cli_ctx_tag, ptr %12, i32 0, i32 8
  %61 = load ptr, ptr %60, align 8
  %62 = getelementptr inbounds %struct.cl_scan_options, ptr %61, i32 0, i32 1
  store i32 -1, ptr %62, align 4
  %63 = load ptr, ptr %11, align 8
  %64 = getelementptr inbounds %struct.cl_engine, ptr %63, i32 0, i32 27
  %65 = load ptr, ptr %64, align 8
  %66 = getelementptr inbounds %struct.cli_ctx_tag, ptr %12, i32 0, i32 16
  store ptr %65, ptr %66, align 8
  %67 = getelementptr inbounds %struct.cli_ctx_tag, ptr %12, i32 0, i32 6
  %68 = load ptr, ptr %67, align 8
  %69 = getelementptr inbounds %struct.cl_engine, ptr %68, i32 0, i32 14
  %70 = load i32, ptr %69, align 8
  %71 = getelementptr inbounds %struct.cli_ctx_tag, ptr %12, i32 0, i32 12
  store i32 %70, ptr %71, align 8
  %72 = getelementptr inbounds %struct.cli_ctx_tag, ptr %12, i32 0, i32 12
  %73 = load i32, ptr %72, align 8
  %74 = zext i32 %73 to i64
  %75 = call noalias ptr @calloc(i64 noundef 48, i64 noundef %74) #16
  %76 = getelementptr inbounds %struct.cli_ctx_tag, ptr %12, i32 0, i32 11
  store ptr %75, ptr %76, align 8
  %77 = getelementptr inbounds %struct.cli_ctx_tag, ptr %12, i32 0, i32 11
  %78 = load ptr, ptr %77, align 8
  %79 = icmp ne ptr %78, null
  br i1 %79, label %81, label %80

80:                                               ; preds = %54
  br label %153

81:                                               ; preds = %54
  %82 = load ptr, ptr %14, align 8
  %83 = getelementptr inbounds %struct.cli_ctx_tag, ptr %12, i32 0, i32 11
  %84 = load ptr, ptr %83, align 8
  %85 = getelementptr inbounds %struct.cli_ctx_tag, ptr %12, i32 0, i32 13
  %86 = load i32, ptr %85, align 4
  %87 = zext i32 %86 to i64
  %88 = getelementptr inbounds %struct.recursion_level_tag, ptr %84, i64 %87
  %89 = getelementptr inbounds %struct.recursion_level_tag, ptr %88, i32 0, i32 2
  store ptr %82, ptr %89, align 8
  %90 = getelementptr inbounds %struct.cli_ctx_tag, ptr %12, i32 0, i32 11
  %91 = load ptr, ptr %90, align 8
  %92 = getelementptr inbounds %struct.cli_ctx_tag, ptr %12, i32 0, i32 13
  %93 = load i32, ptr %92, align 4
  %94 = zext i32 %93 to i64
  %95 = getelementptr inbounds %struct.recursion_level_tag, ptr %91, i64 %94
  %96 = getelementptr inbounds %struct.recursion_level_tag, ptr %95, i32 0, i32 0
  store i32 0, ptr %96, align 8
  %97 = load ptr, ptr %14, align 8
  %98 = getelementptr inbounds %struct.cl_fmap, ptr %97, i32 0, i32 13
  %99 = load i64, ptr %98, align 8
  %100 = getelementptr inbounds %struct.cli_ctx_tag, ptr %12, i32 0, i32 11
  %101 = load ptr, ptr %100, align 8
  %102 = getelementptr inbounds %struct.cli_ctx_tag, ptr %12, i32 0, i32 13
  %103 = load i32, ptr %102, align 4
  %104 = zext i32 %103 to i64
  %105 = getelementptr inbounds %struct.recursion_level_tag, ptr %101, i64 %104
  %106 = getelementptr inbounds %struct.recursion_level_tag, ptr %105, i32 0, i32 1
  store i64 %99, ptr %106, align 8
  %107 = getelementptr inbounds %struct.cli_ctx_tag, ptr %12, i32 0, i32 11
  %108 = load ptr, ptr %107, align 8
  %109 = getelementptr inbounds %struct.cli_ctx_tag, ptr %12, i32 0, i32 13
  %110 = load i32, ptr %109, align 4
  %111 = zext i32 %110 to i64
  %112 = getelementptr inbounds %struct.recursion_level_tag, ptr %108, i64 %111
  %113 = getelementptr inbounds %struct.recursion_level_tag, ptr %112, i32 0, i32 2
  %114 = load ptr, ptr %113, align 8
  %115 = getelementptr inbounds %struct.cli_ctx_tag, ptr %12, i32 0, i32 14
  store ptr %114, ptr %115, align 8
  %116 = call i32 @cli_scan_fmap(ptr noundef %12, i32 noundef 0, i1 noundef zeroext false, ptr noundef null, i32 noundef 1, ptr noundef %7, ptr noundef null)
  %117 = load ptr, ptr %7, align 8
  store ptr %117, ptr %8, align 8
  br label %118

118:                                              ; preds = %121, %81
  %119 = load ptr, ptr %8, align 8
  %120 = icmp ne ptr %119, null
  br i1 %120, label %121, label %127

121:                                              ; preds = %118
  %122 = load i32, ptr %10, align 4
  %123 = add i32 %122, 1
  store i32 %123, ptr %10, align 4
  %124 = load ptr, ptr %8, align 8
  %125 = getelementptr inbounds %struct.cli_ac_result, ptr %124, i32 0, i32 3
  %126 = load ptr, ptr %125, align 8
  store ptr %126, ptr %8, align 8
  br label %118

127:                                              ; preds = %118
  %128 = load i32, ptr %10, align 4
  %129 = icmp ne i32 %128, 0
  br i1 %129, label %130, label %151

130:                                              ; preds = %127
  %131 = load ptr, ptr %5, align 8
  %132 = icmp ne ptr %131, null
  %133 = select i1 %132, ptr @.str.440, ptr @.str.441
  %134 = load i32, ptr %10, align 4
  %135 = load i32, ptr %10, align 4
  %136 = icmp ugt i32 %135, 1
  %137 = select i1 %136, ptr @.str.442, ptr @.str.443
  call void (i32, ptr, ...) @mprintf(i32 noundef 0, ptr noundef @.str.439, ptr noundef %133, i32 noundef %134, ptr noundef %137)
  %138 = load ptr, ptr %7, align 8
  store ptr %138, ptr %8, align 8
  br label %139

139:                                              ; preds = %142, %130
  %140 = load ptr, ptr %8, align 8
  %141 = icmp ne ptr %140, null
  br i1 %141, label %142, label %150

142:                                              ; preds = %139
  %143 = load ptr, ptr %8, align 8
  %144 = getelementptr inbounds %struct.cli_ac_result, ptr %143, i32 0, i32 2
  %145 = load i64, ptr %144, align 8
  %146 = trunc i64 %145 to i32
  call void (i32, ptr, ...) @mprintf(i32 noundef 0, ptr noundef @.str.444, i32 noundef %146)
  %147 = load ptr, ptr %8, align 8
  %148 = getelementptr inbounds %struct.cli_ac_result, ptr %147, i32 0, i32 3
  %149 = load ptr, ptr %148, align 8
  store ptr %149, ptr %8, align 8
  br label %139

150:                                              ; preds = %139
  call void (i32, ptr, ...) @mprintf(i32 noundef 0, ptr noundef @.str.445)
  br label %152

151:                                              ; preds = %127
  call void (i32, ptr, ...) @mprintf(i32 noundef 0, ptr noundef @.str.446)
  br label %152

152:                                              ; preds = %151, %150
  br label %153

153:                                              ; preds = %152, %80, %53, %48, %38, %31, %27
  br label %154

154:                                              ; preds = %157, %153
  %155 = load ptr, ptr %7, align 8
  %156 = icmp ne ptr %155, null
  br i1 %156, label %157, label %163

157:                                              ; preds = %154
  %158 = load ptr, ptr %7, align 8
  store ptr %158, ptr %8, align 8
  %159 = load ptr, ptr %7, align 8
  %160 = getelementptr inbounds %struct.cli_ac_result, ptr %159, i32 0, i32 3
  %161 = load ptr, ptr %160, align 8
  store ptr %161, ptr %7, align 8
  %162 = load ptr, ptr %8, align 8
  call void @free(ptr noundef %162) #11
  br label %154

163:                                              ; preds = %154
  %164 = load ptr, ptr %14, align 8
  %165 = icmp ne ptr null, %164
  br i1 %165, label %166, label %168

166:                                              ; preds = %163
  %167 = load ptr, ptr %14, align 8
  call void @funmap(ptr noundef %167)
  br label %168

168:                                              ; preds = %166, %163
  %169 = getelementptr inbounds %struct.cli_ctx_tag, ptr %12, i32 0, i32 11
  %170 = load ptr, ptr %169, align 8
  %171 = icmp ne ptr null, %170
  br i1 %171, label %172, label %175

172:                                              ; preds = %168
  %173 = getelementptr inbounds %struct.cli_ctx_tag, ptr %12, i32 0, i32 11
  %174 = load ptr, ptr %173, align 8
  call void @free(ptr noundef %174) #11
  br label %175

175:                                              ; preds = %172, %168
  %176 = getelementptr inbounds %struct.cli_ctx_tag, ptr %12, i32 0, i32 3
  %177 = load ptr, ptr %176, align 8
  %178 = icmp ne ptr null, %177
  br i1 %178, label %179, label %182

179:                                              ; preds = %175
  %180 = getelementptr inbounds %struct.cli_ctx_tag, ptr %12, i32 0, i32 3
  %181 = load ptr, ptr %180, align 8
  call void @evidence_free(ptr noundef %181)
  br label %182

182:                                              ; preds = %179, %175
  %183 = load ptr, ptr %11, align 8
  %184 = icmp ne ptr null, %183
  br i1 %184, label %185, label %188

185:                                              ; preds = %182
  %186 = load ptr, ptr %11, align 8
  %187 = call i32 @cl_engine_free(ptr noundef %186)
  br label %188

188:                                              ; preds = %185, %182
  ret void
}