; Function Attrs: nounwind uwtable
define internal fastcc void @matchsig(ptr noundef %0, ptr noundef readnone %1, i32 noundef %2) unnamed_addr #0 {
  %4 = alloca ptr, align 8
  %5 = alloca %struct.stat, align 8
  %6 = alloca %struct.cli_ctx_tag, align 8
  %7 = alloca %struct.cl_scan_options, align 4
  %8 = alloca %struct.cli_lsig_tdb, align 8
  store ptr null, ptr %4, align 8
  call void @llvm.memset.p0.i64(ptr noundef nonnull align 8 dereferenceable(192) %6, i8 0, i64 192, i1 false)
  call void @llvm.memset.p0.i64(ptr noundef nonnull align 4 dereferenceable(20) %7, i8 0, i64 20, i1 false)
  call void @llvm.memset.p0.i64(ptr noundef nonnull align 8 dereferenceable(136) %8, i8 0, i64 136, i1 false)
  tail call void (i32, ptr, ...) @mprintf(i32 noundef 0, ptr noundef nonnull @.str.434, ptr noundef %0) #25
  %9 = tail call i64 @lseek(i32 noundef %2, i64 noundef 0, i32 noundef 0) #25
  %10 = call i32 @fstat(i32 noundef %2, ptr noundef nonnull %5) #25
  %11 = getelementptr inbounds i8, ptr %5, i64 48
  %12 = load i64, ptr %11, align 8
  %13 = tail call ptr @fmap(i32 noundef %2, i64 noundef 0, i64 noundef %12, ptr noundef null) #25
  %14 = icmp eq ptr %13, null
  br i1 %14, label %62, label %15

15:                                               ; preds = %3
  %16 = tail call ptr @cl_engine_new() #25
  %.not = icmp eq ptr %16, null
  br i1 %.not, label %17, label %18

17:                                               ; preds = %15
  tail call void (i32, ptr, ...) @mprintf(i32 noundef 5, ptr noundef nonnull @.str.435) #25
  br label %62

18:                                               ; preds = %15
  %19 = tail call i32 @cl_engine_set_num(ptr noundef nonnull %16, i32 noundef 10, i64 noundef 1) #25
  %20 = tail call i32 @cli_initroots(ptr noundef nonnull %16, i32 noundef 0) #25
  %.not38 = icmp eq i32 %20, 0
  br i1 %.not38, label %22, label %21

21:                                               ; preds = %18
  tail call void (i32, ptr, ...) @mprintf(i32 noundef 5, ptr noundef nonnull @.str.436) #25
  br label %62

22:                                               ; preds = %18
  %23 = getelementptr inbounds i8, ptr %16, i64 96
  %24 = load ptr, ptr %23, align 8
  %25 = load ptr, ptr %24, align 8
  %26 = call i32 @readdb_parse_ldb_subsignature(ptr noundef %25, ptr noundef nonnull @.str.113, ptr noundef %0, ptr noundef nonnull @.str.115, ptr noundef null, i32 noundef 0, i32 noundef 0, i32 noundef 1, ptr noundef nonnull %8) #25
  %.not39 = icmp eq i32 %26, 0
  br i1 %.not39, label %28, label %27

27:                                               ; preds = %22
  call void (i32, ptr, ...) @mprintf(i32 noundef 5, ptr noundef nonnull @.str.437) #25
  br label %62

28:                                               ; preds = %22
  %29 = call i32 @cl_engine_compile(ptr noundef nonnull %16) #25
  %.not40 = icmp eq i32 %29, 0
  br i1 %.not40, label %31, label %30

30:                                               ; preds = %28
  call void (i32, ptr, ...) @mprintf(i32 noundef 5, ptr noundef nonnull @.str.438) #25
  br label %62

31:                                               ; preds = %28
  %32 = getelementptr inbounds i8, ptr %6, i64 48
  store ptr %16, ptr %32, align 8
  %33 = call ptr @evidence_new() #25
  %34 = getelementptr inbounds i8, ptr %6, i64 24
  store ptr %33, ptr %34, align 8
  %35 = getelementptr inbounds i8, ptr %6, i64 64
  store ptr %7, ptr %35, align 8
  %36 = getelementptr inbounds i8, ptr %7, i64 4
  store i32 -1, ptr %36, align 4
  %37 = getelementptr inbounds i8, ptr %16, i64 168
  %38 = load ptr, ptr %37, align 8
  %39 = getelementptr inbounds i8, ptr %6, i64 120
  store ptr %38, ptr %39, align 8
  %40 = getelementptr inbounds i8, ptr %16, i64 80
  %41 = load i32, ptr %40, align 8
  %42 = getelementptr inbounds i8, ptr %6, i64 88
  store i32 %41, ptr %42, align 8
  %43 = zext i32 %41 to i64
  %44 = call noalias ptr @calloc(i64 noundef 48, i64 noundef %43) #28
  %45 = getelementptr inbounds i8, ptr %6, i64 80
  store ptr %44, ptr %45, align 8
  %.not41 = icmp eq ptr %44, null
  br i1 %.not41, label %62, label %46

46:                                               ; preds = %31
  %47 = getelementptr inbounds i8, ptr %44, i64 16
  store ptr %13, ptr %47, align 8
  %48 = getelementptr inbounds i8, ptr %13, i64 88
  %49 = load i64, ptr %48, align 8
  %50 = getelementptr inbounds i8, ptr %44, i64 8
  store i64 %49, ptr %50, align 8
  %51 = getelementptr inbounds i8, ptr %6, i64 96
  store ptr %13, ptr %51, align 8
  %52 = call i32 @cli_scan_fmap(ptr noundef nonnull %6, i32 noundef 0, i1 noundef zeroext false, ptr noundef null, i32 noundef 1, ptr noundef nonnull %4, ptr noundef null) #25
  %.02952 = load ptr, ptr %4, align 8
  %.not4253 = icmp eq ptr %.02952, null
  br i1 %.not4253, label %._crit_edge.thread, label %.lr.ph

.lr.ph:                                           ; preds = %46, %.lr.ph
  %.02955 = phi ptr [ %.029, %.lr.ph ], [ %.02952, %46 ]
  %.02854 = phi i32 [ %53, %.lr.ph ], [ 0, %46 ]
  %53 = add i32 %.02854, 1
  %54 = getelementptr inbounds i8, ptr %.02955, i64 24
  %.029 = load ptr, ptr %54, align 8
  %.not42 = icmp eq ptr %.029, null
  br i1 %.not42, label %._crit_edge, label %.lr.ph

._crit_edge:                                      ; preds = %.lr.ph
  %.not43 = icmp eq i32 %53, 0
  br i1 %.not43, label %._crit_edge.thread, label %55

55:                                               ; preds = %._crit_edge
  %.not44 = icmp eq ptr %1, null
  %56 = select i1 %.not44, ptr @.str.441, ptr @.str.440
  %.not45 = icmp eq i32 %.02854, 0
  %57 = select i1 %.not45, ptr @.str.443, ptr @.str.442
  call void (i32, ptr, ...) @mprintf(i32 noundef 0, ptr noundef nonnull @.str.439, ptr noundef nonnull %56, i32 noundef %53, ptr noundef nonnull %57) #25
  %.156 = load ptr, ptr %4, align 8
  %.not4657 = icmp eq ptr %.156, null
  br i1 %.not4657, label %._crit_edge61, label %.lr.ph60

.lr.ph60:                                         ; preds = %55, %.lr.ph60
  %.158 = phi ptr [ %.1, %.lr.ph60 ], [ %.156, %55 ]
  %58 = getelementptr inbounds i8, ptr %.158, i64 16
  %59 = load i64, ptr %58, align 8
  %60 = trunc i64 %59 to i32
  call void (i32, ptr, ...) @mprintf(i32 noundef 0, ptr noundef nonnull @.str.444, i32 noundef %60) #25
  %61 = getelementptr inbounds i8, ptr %.158, i64 24
  %.1 = load ptr, ptr %61, align 8
  %.not46 = icmp eq ptr %.1, null
  br i1 %.not46, label %._crit_edge61, label %.lr.ph60

._crit_edge61:                                    ; preds = %.lr.ph60, %55
  call void (i32, ptr, ...) @mprintf(i32 noundef 0, ptr noundef nonnull @.str.445) #25
  br label %62

._crit_edge.thread:                               ; preds = %46, %._crit_edge
  call void (i32, ptr, ...) @mprintf(i32 noundef 0, ptr noundef nonnull @.str.446) #25
  br label %62

62:                                               ; preds = %._crit_edge61, %._crit_edge.thread, %31, %3, %30, %27, %21, %17
  %.0 = phi ptr [ null, %3 ], [ %16, %21 ], [ %16, %27 ], [ %16, %30 ], [ %16, %._crit_edge61 ], [ %16, %._crit_edge.thread ], [ %16, %31 ], [ null, %17 ]
  %63 = load ptr, ptr %4, align 8
  %.not4762 = icmp eq ptr %63, null
  br i1 %.not4762, label %._crit_edge65, label %.lr.ph64

.lr.ph64:                                         ; preds = %62, %.lr.ph64
  %64 = phi ptr [ %67, %.lr.ph64 ], [ %63, %62 ]
  %65 = getelementptr inbounds i8, ptr %64, i64 24
  %66 = load ptr, ptr %65, align 8
  store ptr %66, ptr %4, align 8
  call void @free(ptr noundef nonnull %64) #25
  %67 = load ptr, ptr %4, align 8
  %.not47 = icmp eq ptr %67, null
  br i1 %.not47, label %._crit_edge65, label %.lr.ph64

._crit_edge65:                                    ; preds = %.lr.ph64, %62
  br i1 %14, label %71, label %68

68:                                               ; preds = %._crit_edge65
  %69 = getelementptr inbounds i8, ptr %13, i64 96
  %70 = load ptr, ptr %69, align 8
  call void %70(ptr noundef nonnull %13) #25
  br label %71

71:                                               ; preds = %68, %._crit_edge65
  %72 = getelementptr inbounds i8, ptr %6, i64 80
  %73 = load ptr, ptr %72, align 8
  %.not49 = icmp eq ptr %73, null
  br i1 %.not49, label %75, label %74

74:                                               ; preds = %71
  call void @free(ptr noundef nonnull %73) #25
  br label %75

75:                                               ; preds = %74, %71
  %76 = getelementptr inbounds i8, ptr %6, i64 24
  %77 = load ptr, ptr %76, align 8
  %.not50 = icmp eq ptr %77, null
  br i1 %.not50, label %79, label %78

78:                                               ; preds = %75
  call void @evidence_free(ptr noundef nonnull %77) #25
  br label %79

79:                                               ; preds = %78, %75
  %.not51 = icmp eq ptr %.0, null
  br i1 %.not51, label %82, label %80

80:                                               ; preds = %79
  %81 = call i32 @cl_engine_free(ptr noundef nonnull %.0) #25
  br label %82

82:                                               ; preds = %80, %79
  ret void
}